; Function Attrs: nounwind uwtable
define ptr @l_Array_forIn_x27Unsafe_loop___at_Lean_Elab_WF_GuessLex_simpleMeasures___spec__1___boxed(ptr noundef %0, ptr noundef %1, ptr noundef %2, ptr noundef %3, ptr noundef %4, ptr noundef %5, ptr noundef %6, ptr noundef %7, ptr noundef %8, ptr noundef %9, ptr noundef %10, ptr noundef %11, ptr noundef %12) local_unnamed_addr #1 {
  %14 = ptrtoint ptr %0 to i64
  %15 = lshr i64 %14, 1
  %16 = trunc i64 %15 to i8
  %17 = and i64 %14, 1
  %.not = icmp eq i64 %17, 0
  br i1 %.not, label %18, label %lean_dec.exit28

18:                                               ; preds = %13
  %19 = load i32, ptr %0, align 4, !tbaa !8
  %20 = icmp sgt i32 %19, 1
  br i1 %20, label %21, label %23, !prof !11

21:                                               ; preds = %18
  %22 = add nsw i32 %19, -1
  store i32 %22, ptr %0, align 4, !tbaa !8
  br label %lean_dec.exit28

23:                                               ; preds = %18
  %.not.i = icmp eq i32 %19, 0
  br i1 %.not.i, label %lean_dec.exit28, label %24

24:                                               ; preds = %23
  tail call void @lean_dec_ref_cold(ptr noundef nonnull %0) #8
  br label %lean_dec.exit28

lean_dec.exit28:                                  ; preds = %24, %23, %21, %13
  %25 = getelementptr i8, ptr %5, i64 8
  %.val41 = load i64, ptr %25, align 8, !tbaa !12
  %26 = ptrtoint ptr %5 to i64
  %27 = and i64 %26, 1
  %.not42 = icmp eq i64 %27, 0
  br i1 %.not42, label %28, label %lean_dec.exit27

28:                                               ; preds = %lean_dec.exit28
  %29 = load i32, ptr %5, align 4, !tbaa !8
  %30 = icmp sgt i32 %29, 1
  br i1 %30, label %31, label %33, !prof !11

31:                                               ; preds = %28
  %32 = add nsw i32 %29, -1
  store i32 %32, ptr %5, align 4, !tbaa !8
  br label %lean_dec.exit27

33:                                               ; preds = %28
  %.not.i29 = icmp eq i32 %29, 0
  br i1 %.not.i29, label %lean_dec.exit27, label %34

34:                                               ; preds = %33
  tail call void @lean_dec_ref_cold(ptr noundef nonnull %5) #8
  br label %lean_dec.exit27

lean_dec.exit27:                                  ; preds = %34, %33, %31, %lean_dec.exit28
  %35 = getelementptr i8, ptr %6, i64 8
  %.val = load i64, ptr %35, align 8, !tbaa !12
  %36 = ptrtoint ptr %6 to i64
  %37 = and i64 %36, 1
  %.not43 = icmp eq i64 %37, 0
  br i1 %.not43, label %38, label %lean_dec.exit26

38:                                               ; preds = %lean_dec.exit27
  %39 = load i32, ptr %6, align 4, !tbaa !8
  %40 = icmp sgt i32 %39, 1
  br i1 %40, label %41, label %43, !prof !11

41:                                               ; preds = %38
  %42 = add nsw i32 %39, -1
  store i32 %42, ptr %6, align 4, !tbaa !8
  br label %lean_dec.exit26

43:                                               ; preds = %38
  %.not.i31 = icmp eq i32 %39, 0
  br i1 %.not.i31, label %lean_dec.exit26, label %44

44:                                               ; preds = %43
  tail call void @lean_dec_ref_cold(ptr noundef nonnull %6) #8
  br label %lean_dec.exit26

lean_dec.exit26:                                  ; preds = %44, %43, %41, %lean_dec.exit27
  %45 = tail call ptr @l_Array_forIn_x27Unsafe_loop___at_Lean_Elab_WF_GuessLex_simpleMeasures___spec__1(i8 noundef zeroext %16, ptr noundef %1, ptr noundef %2, ptr poison, ptr noundef %4, i64 noundef %.val41, i64 noundef %.val, ptr noundef %7, ptr noundef %8, ptr noundef %9, ptr noundef %10, ptr noundef %11, ptr noundef %12)
  %46 = ptrtoint ptr %4 to i64
  %47 = and i64 %46, 1
  %.not44 = icmp eq i64 %47, 0
  br i1 %.not44, label %48, label %lean_dec.exit25

48:                                               ; preds = %lean_dec.exit26
  %49 = load i32, ptr %4, align 4, !tbaa !8
  %50 = icmp sgt i32 %49, 1
  br i1 %50, label %51, label %53, !prof !11

51:                                               ; preds = %48
  %52 = add nsw i32 %49, -1
  store i32 %52, ptr %4, align 4, !tbaa !8
  br label %lean_dec.exit25

53:                                               ; preds = %48
  %.not.i33 = icmp eq i32 %49, 0
  br i1 %.not.i33, label %lean_dec.exit25, label %54

54:                                               ; preds = %53
  tail call void @lean_dec_ref_cold(ptr noundef nonnull %4) #8
  br label %lean_dec.exit25

lean_dec.exit25:                                  ; preds = %54, %53, %51, %lean_dec.exit26
  %55 = ptrtoint ptr %3 to i64
  %56 = and i64 %55, 1
  %.not45 = icmp eq i64 %56, 0
  br i1 %.not45, label %57, label %lean_dec.exit24

57:                                               ; preds = %lean_dec.exit25
  %58 = load i32, ptr %3, align 4, !tbaa !8
  %59 = icmp sgt i32 %58, 1
  br i1 %59, label %60, label %62, !prof !11

60:                                               ; preds = %57
  %61 = add nsw i32 %58, -1
  store i32 %61, ptr %3, align 4, !tbaa !8
  br label %lean_dec.exit24

62:                                               ; preds = %57
  %.not.i35 = icmp eq i32 %58, 0
  br i1 %.not.i35, label %lean_dec.exit24, label %63

63:                                               ; preds = %62
  tail call void @lean_dec_ref_cold(ptr noundef nonnull %3) #8
  br label %lean_dec.exit24

lean_dec.exit24:                                  ; preds = %63, %62, %60, %lean_dec.exit25
  %64 = ptrtoint ptr %2 to i64
  %65 = and i64 %64, 1
  %.not46 = icmp eq i64 %65, 0
  br i1 %.not46, label %66, label %lean_dec.exit23

66:                                               ; preds = %lean_dec.exit24
  %67 = load i32, ptr %2, align 4, !tbaa !8
  %68 = icmp sgt i32 %67, 1
  br i1 %68, label %69, label %71, !prof !11

69:                                               ; preds = %66
  %70 = add nsw i32 %67, -1
  store i32 %70, ptr %2, align 4, !tbaa !8
  br label %lean_dec.exit23

71:                                               ; preds = %66
  %.not.i37 = icmp eq i32 %67, 0
  br i1 %.not.i37, label %lean_dec.exit23, label %72

72:                                               ; preds = %71
  tail call void @lean_dec_ref_cold(ptr noundef nonnull %2) #8
  br label %lean_dec.exit23

lean_dec.exit23:                                  ; preds = %72, %71, %69, %lean_dec.exit24
  %73 = ptrtoint ptr %1 to i64
  %74 = and i64 %73, 1
  %.not47 = icmp eq i64 %74, 0
  br i1 %.not47, label %75, label %lean_dec.exit

75:                                               ; preds = %lean_dec.exit23
  %76 = load i32, ptr %1, align 4, !tbaa !8
  %77 = icmp sgt i32 %76, 1
  br i1 %77, label %78, label %80, !prof !11

78:                                               ; preds = %75
  %79 = add nsw i32 %76, -1
  store i32 %79, ptr %1, align 4, !tbaa !8
  br label %lean_dec.exit

80:                                               ; preds = %75
  %.not.i39 = icmp eq i32 %76, 0
  br i1 %.not.i39, label %lean_dec.exit, label %81

81:                                               ; preds = %80
  tail call void @lean_dec_ref_cold(ptr noundef nonnull %1) #8
  br label %lean_dec.exit

lean_dec.exit:                                    ; preds = %81, %80, %78, %lean_dec.exit23
  ret ptr %45
}